; Function Attrs: mustprogress nofree norecurse nounwind willreturn memory(readwrite, inaccessiblemem: none) uwtable
define ptr @av_demuxer_iterate(ptr noundef captures(none) %0) local_unnamed_addr #0 {
  %2 = load ptr, ptr %0, align 8, !tbaa !4
  %3 = ptrtoint ptr %2 to i64
  %4 = icmp ult ptr %2, inttoptr (i64 355 to ptr)
  br i1 %4, label %5, label %7

5:                                                ; preds = %1
  %6 = getelementptr inbounds nuw [356 x ptr], ptr @demuxer_list, i64 0, i64 %3
  br label %13

7:                                                ; preds = %1
  %8 = load atomic i64, ptr @indev_list_intptr monotonic, align 8
  %.not = icmp eq i64 %8, 0
  br i1 %.not, label %.thread, label %9

9:                                                ; preds = %7
  %10 = inttoptr i64 %8 to ptr
  %11 = getelementptr ptr, ptr %10, i64 %3
  %12 = getelementptr i8, ptr %11, i64 -2840
  br label %13

13:                                               ; preds = %9, %5
  %.011.in = phi ptr [ %6, %5 ], [ %12, %9 ]
  %.011 = load ptr, ptr %.011.in, align 8, !tbaa !10
  %.not14 = icmp eq ptr %.011, null
  br i1 %.not14, label %.thread, label %14

14:                                               ; preds = %13
  %15 = add i64 %3, 1
  %16 = inttoptr i64 %15 to ptr
  store ptr %16, ptr %0, align 8, !tbaa !4
  br label %.thread

.thread:                                          ; preds = %7, %13, %14
  %.0 = phi ptr [ %.011, %14 ], [ null, %13 ], [ null, %7 ]
  ret ptr %.0
}